target datalayout = "e-m:e-p270:32:32-p271:32:32-p272:64:64-i64:64-i128:128-f80:128-n8:16:32:64-S128"
target triple = "x86_64-pc-linux-gnu"

%struct._zend_compiler_globals = type { %struct._zend_stack, ptr, ptr, i32, ptr, ptr, ptr, ptr, i8, i8, i8, i8, i8, %struct._zend_llist, ptr, i8, i8, i8, i8, ptr, i32, i32, %struct._zend_oparray_context, %struct._zend_file_context, ptr, %struct._zend_array, ptr, i64, i8, i8, i8, ptr, ptr, %struct._zend_stack, ptr, i32, ptr, ptr, i64, i64, ptr, ptr, ptr, ptr, i32, %struct._zend_stack }
%struct._zend_llist = type { ptr, ptr, i64, i64, ptr, i8, ptr }
%struct._zend_oparray_context = type { i32, i32, i32, i32, i32, i32, i32, ptr, ptr, i8 }
%struct._zend_file_context = type { %struct._zend_declarables, ptr, i8, i8, ptr, ptr, ptr, %struct._zend_array }
%struct._zend_declarables = type { i64 }
%struct._zend_array = type { %struct._zend_refcounted_h, %union.anon.5, i32, %union.anon.7, i32, i32, i32, i32, i64, ptr }
%struct._zend_refcounted_h = type { i32, %union.anon.3 }
%union.anon.3 = type { i32 }
%union.anon.5 = type { i32 }
%union.anon.7 = type { ptr }
%struct._zend_stack = type { i32, i32, i32, ptr }
%struct.zend_type = type { ptr, i32 }
%struct._zval_struct = type { %union._zend_value, %union.anon, %union.anon.2 }
%union._zend_value = type { i64 }
%union.anon = type { i32 }
%union.anon.2 = type { i32 }
%struct._zend_string = type { %struct._zend_refcounted_h, i64, i64, [1 x i8] }
%struct._zend_class_entry = type { i8, ptr, %union.anon.4, i32, i32, i32, i32, ptr, ptr, ptr, %struct._zend_array, %struct._zend_array, %struct._zend_array, ptr, ptr, ptr, ptr, ptr, ptr, ptr, ptr, ptr, ptr, ptr, ptr, ptr, ptr, ptr, ptr, ptr, ptr, ptr, %union.anon.8, ptr, ptr, ptr, ptr, i32, i32, %union.anon.9, ptr, ptr, ptr, ptr, i32, ptr, ptr, %union.anon.10 }
%union.anon.4 = type { ptr }
%union.anon.8 = type { ptr }
%union.anon.9 = type { ptr }
%union.anon.10 = type { %struct.anon.11 }
%struct.anon.11 = type { ptr, i32, i32 }
%struct._zend_class_mutable_data = type { ptr, ptr, i32, ptr }
%struct._zend_class_constant = type { %struct._zval_struct, ptr, ptr, ptr, %struct.zend_type }

@.str.4 = private unnamed_addr constant [45 x i8] c"%ld is not a valid backing value for enum %s\00", align 1
@.str.5 = private unnamed_addr constant [46 x i8] c"\22%s\22 is not a valid backing value for enum %s\00", align 1
@compiler_globals = external global %struct._zend_compiler_globals, align 8

; Function Attrs: nounwind uwtable
define i32 @zend_enum_get_case_by_value(ptr noundef %0, ptr noundef %1, i64 noundef %2, ptr noundef %3, i1 noundef zeroext %4) #0 {
  %6 = alloca ptr, align 8
  %7 = alloca ptr, align 8
  %8 = alloca ptr, align 8
  %9 = alloca ptr, align 8
  %10 = alloca ptr, align 8
  %11 = alloca ptr, align 8
  %12 = alloca ptr, align 8
  %13 = alloca ptr, align 8
  %14 = alloca ptr, align 8
  %15 = alloca ptr, align 8
  %16 = alloca ptr, align 8
  %17 = alloca i32, align 4
  %18 = alloca ptr, align 8
  %19 = alloca ptr, align 8
  %20 = alloca i64, align 8
  %21 = alloca ptr, align 8
  %22 = alloca i8, align 1
  %23 = alloca ptr, align 8
  %24 = alloca ptr, align 8
  %25 = alloca ptr, align 8
  %26 = alloca ptr, align 8
  store ptr %0, ptr %18, align 8
  store ptr %1, ptr %19, align 8
  store i64 %2, ptr %20, align 8
  store ptr %3, ptr %21, align 8
  %27 = zext i1 %4 to i8
  store i8 %27, ptr %22, align 1
  %28 = load ptr, ptr %19, align 8
  %29 = getelementptr inbounds %struct._zend_class_entry, ptr %28, i32 0, i32 0
  %30 = load i8, ptr %29, align 8
  %31 = sext i8 %30 to i32
  %32 = icmp eq i32 %31, 2
  br i1 %32, label %33, label %45

33:                                               ; preds = %5
  %34 = load ptr, ptr %19, align 8
  %35 = getelementptr inbounds %struct._zend_class_entry, ptr %34, i32 0, i32 4
  %36 = load i32, ptr %35, align 4
  %37 = and i32 %36, 4096
  %38 = icmp ne i32 %37, 0
  br i1 %38, label %45, label %39

39:                                               ; preds = %33
  %40 = load ptr, ptr %19, align 8
  %41 = call i32 @zend_update_class_constants(ptr noundef %40)
  %42 = icmp eq i32 %41, -1
  br i1 %42, label %43, label %44

43:                                               ; preds = %39
  store i32 -1, ptr %17, align 4
  br label %210

44:                                               ; preds = %39
  br label %45

45:                                               ; preds = %44, %33, %5
  %46 = load ptr, ptr %19, align 8
  store ptr %46, ptr %11, align 8
  %47 = load ptr, ptr %11, align 8
  %48 = getelementptr inbounds %struct._zend_class_entry, ptr %47, i32 0, i32 13
  %49 = load ptr, ptr %48, align 8
  %50 = icmp ne ptr %49, null
  br i1 %50, label %51, label %67

51:                                               ; preds = %45
  %52 = load ptr, ptr %11, align 8
  %53 = load i8, ptr %52, align 8
  %54 = sext i8 %53 to i32
  %55 = icmp eq i32 %54, 2
  br i1 %55, label %56, label %67

56:                                               ; preds = %51
  %57 = load ptr, ptr getelementptr inbounds (%struct._zend_compiler_globals, ptr @compiler_globals, i32 0, i32 37), align 8
  %58 = load ptr, ptr %11, align 8
  %59 = getelementptr inbounds %struct._zend_class_entry, ptr %58, i32 0, i32 13
  %60 = load ptr, ptr %59, align 8
  %61 = ptrtoint ptr %60 to i64
  %62 = getelementptr inbounds i8, ptr %57, i64 %61
  %63 = load ptr, ptr %62, align 8
  store ptr %63, ptr %12, align 8
  %64 = load ptr, ptr %12, align 8
  %65 = getelementptr inbounds %struct._zend_class_mutable_data, ptr %64, i32 0, i32 3
  %66 = load ptr, ptr %65, align 8
  store ptr %66, ptr %10, align 8
  br label %71

67:                                               ; preds = %51, %45
  %68 = load ptr, ptr %11, align 8
  %69 = getelementptr inbounds %struct._zend_class_entry, ptr %68, i32 0, i32 45
  %70 = load ptr, ptr %69, align 8
  store ptr %70, ptr %10, align 8
  br label %71

71:                                               ; preds = %67, %56
  %72 = load ptr, ptr %10, align 8
  store ptr %72, ptr %23, align 8
  %73 = load ptr, ptr %23, align 8
  %74 = icmp ne ptr %73, null
  br i1 %74, label %76, label %75

75:                                               ; preds = %71
  br label %99

76:                                               ; preds = %71
  %77 = load ptr, ptr %19, align 8
  %78 = getelementptr inbounds %struct._zend_class_entry, ptr %77, i32 0, i32 44
  %79 = load i32, ptr %78, align 8
  %80 = icmp eq i32 %79, 4
  br i1 %80, label %81, label %85

81:                                               ; preds = %76
  %82 = load ptr, ptr %23, align 8
  %83 = load i64, ptr %20, align 8
  %84 = call ptr @zend_hash_index_find(ptr noundef %82, i64 noundef %83)
  store ptr %84, ptr %24, align 8
  br label %95

85:                                               ; preds = %76
  %86 = load ptr, ptr %19, align 8
  %87 = getelementptr inbounds %struct._zend_class_entry, ptr %86, i32 0, i32 44
  %88 = load i32, ptr %87, align 8
  %89 = icmp eq i32 %88, 6
  call void @llvm.assume(i1 %89)
  %90 = load ptr, ptr %21, align 8
  %91 = icmp ne ptr %90, null
  call void @llvm.assume(i1 %91)
  %92 = load ptr, ptr %23, align 8
  %93 = load ptr, ptr %21, align 8
  %94 = call ptr @zend_hash_find(ptr noundef %92, ptr noundef %93)
  store ptr %94, ptr %24, align 8
  br label %95

95:                                               ; preds = %85, %81
  %96 = load ptr, ptr %24, align 8
  %97 = icmp eq ptr %96, null
  br i1 %97, label %98, label %130

98:                                               ; preds = %95
  br label %99

99:                                               ; preds = %98, %75
  %100 = load i8, ptr %22, align 1
  %101 = trunc i8 %100 to i1
  br i1 %101, label %102, label %104

102:                                              ; preds = %99
  %103 = load ptr, ptr %18, align 8
  store ptr null, ptr %103, align 8
  store i32 0, ptr %17, align 4
  br label %210

104:                                              ; preds = %99
  %105 = load ptr, ptr %19, align 8
  %106 = getelementptr inbounds %struct._zend_class_entry, ptr %105, i32 0, i32 44
  %107 = load i32, ptr %106, align 8
  %108 = icmp eq i32 %107, 4
  br i1 %108, label %109, label %116

109:                                              ; preds = %104
  %110 = load i64, ptr %20, align 8
  %111 = load ptr, ptr %19, align 8
  %112 = getelementptr inbounds %struct._zend_class_entry, ptr %111, i32 0, i32 1
  %113 = load ptr, ptr %112, align 8
  %114 = getelementptr inbounds %struct._zend_string, ptr %113, i32 0, i32 3
  %115 = getelementptr inbounds [1 x i8], ptr %114, i64 0, i64 0
  call void (ptr, ...) @zend_value_error(ptr noundef @.str.4, i64 noundef %110, ptr noundef %115)
  br label %129

116:                                              ; preds = %104
  %117 = load ptr, ptr %19, align 8
  %118 = getelementptr inbounds %struct._zend_class_entry, ptr %117, i32 0, i32 44
  %119 = load i32, ptr %118, align 8
  %120 = icmp eq i32 %119, 6
  call void @llvm.assume(i1 %120)
  %121 = load ptr, ptr %21, align 8
  %122 = getelementptr inbounds %struct._zend_string, ptr %121, i32 0, i32 3
  %123 = getelementptr inbounds [1 x i8], ptr %122, i64 0, i64 0
  %124 = load ptr, ptr %19, align 8
  %125 = getelementptr inbounds %struct._zend_class_entry, ptr %124, i32 0, i32 1
  %126 = load ptr, ptr %125, align 8
  %127 = getelementptr inbounds %struct._zend_string, ptr %126, i32 0, i32 3
  %128 = getelementptr inbounds [1 x i8], ptr %127, i64 0, i64 0
  call void (ptr, ...) @zend_value_error(ptr noundef @.str.5, ptr noundef %123, ptr noundef %128)
  br label %129

129:                                              ; preds = %116, %109
  store i32 -1, ptr %17, align 4
  br label %210

130:                                              ; preds = %95
  %131 = load ptr, ptr %19, align 8
  store ptr %131, ptr %15, align 8
  %132 = load ptr, ptr %15, align 8
  %133 = getelementptr inbounds %struct._zend_class_entry, ptr %132, i32 0, i32 4
  %134 = load i32, ptr %133, align 4
  %135 = and i32 %134, 16777216
  %136 = icmp ne i32 %135, 0
  br i1 %136, label %137, label %164

137:                                              ; preds = %130
  %138 = load ptr, ptr %15, align 8
  %139 = getelementptr inbounds %struct._zend_class_entry, ptr %138, i32 0, i32 13
  %140 = load ptr, ptr %139, align 8
  %141 = icmp ne ptr %140, null
  br i1 %141, label %142, label %164

142:                                              ; preds = %137
  %143 = load ptr, ptr getelementptr inbounds (%struct._zend_compiler_globals, ptr @compiler_globals, i32 0, i32 37), align 8
  %144 = load ptr, ptr %15, align 8
  %145 = getelementptr inbounds %struct._zend_class_entry, ptr %144, i32 0, i32 13
  %146 = load ptr, ptr %145, align 8
  %147 = ptrtoint ptr %146 to i64
  %148 = getelementptr inbounds i8, ptr %143, i64 %147
  %149 = load ptr, ptr %148, align 8
  store ptr %149, ptr %16, align 8
  %150 = load ptr, ptr %16, align 8
  %151 = icmp ne ptr %150, null
  br i1 %151, label %152, label %161

152:                                              ; preds = %142
  %153 = load ptr, ptr %16, align 8
  %154 = getelementptr inbounds %struct._zend_class_mutable_data, ptr %153, i32 0, i32 1
  %155 = load ptr, ptr %154, align 8
  %156 = icmp ne ptr %155, null
  br i1 %156, label %157, label %161

157:                                              ; preds = %152
  %158 = load ptr, ptr %16, align 8
  %159 = getelementptr inbounds %struct._zend_class_mutable_data, ptr %158, i32 0, i32 1
  %160 = load ptr, ptr %159, align 8
  store ptr %160, ptr %14, align 8
  br label %167

161:                                              ; preds = %152, %142
  %162 = load ptr, ptr %15, align 8
  %163 = call ptr @zend_separate_class_constants_table(ptr noundef %162) #11
  store ptr %163, ptr %14, align 8
  br label %167

164:                                              ; preds = %137, %130
  %165 = load ptr, ptr %15, align 8
  %166 = getelementptr inbounds %struct._zend_class_entry, ptr %165, i32 0, i32 12
  store ptr %166, ptr %14, align 8
  br label %167

167:                                              ; preds = %164, %161, %157
  %168 = load ptr, ptr %14, align 8
  %169 = load ptr, ptr %24, align 8
  %170 = getelementptr inbounds %struct._zval_struct, ptr %169, i32 0, i32 0
  %171 = load ptr, ptr %170, align 8
  store ptr %168, ptr %7, align 8
  store ptr %171, ptr %8, align 8
  %172 = load ptr, ptr %7, align 8
  %173 = load ptr, ptr %8, align 8
  %174 = call ptr @zend_hash_find(ptr noundef %172, ptr noundef %173) #11
  store ptr %174, ptr %9, align 8
  %175 = load ptr, ptr %9, align 8
  %176 = icmp ne ptr %175, null
  br i1 %176, label %177, label %183

177:                                              ; preds = %167
  %178 = load ptr, ptr %9, align 8
  %179 = load ptr, ptr %178, align 8
  %180 = icmp ne ptr %179, null
  call void @llvm.assume(i1 %180)
  %181 = load ptr, ptr %9, align 8
  %182 = load ptr, ptr %181, align 8
  store ptr %182, ptr %6, align 8
  br label %184

183:                                              ; preds = %167
  store ptr null, ptr %6, align 8
  br label %184

184:                                              ; preds = %183, %177
  %185 = load ptr, ptr %6, align 8
  store ptr %185, ptr %25, align 8
  %186 = load ptr, ptr %25, align 8
  %187 = icmp ne ptr %186, null
  call void @llvm.assume(i1 %187)
  %188 = load ptr, ptr %25, align 8
  %189 = getelementptr inbounds %struct._zend_class_constant, ptr %188, i32 0, i32 0
  store ptr %189, ptr %26, align 8
  %190 = load ptr, ptr %26, align 8
  store ptr %190, ptr %13, align 8
  %191 = load ptr, ptr %13, align 8
  %192 = getelementptr inbounds %struct._zval_struct, ptr %191, i32 0, i32 1
  %193 = load i8, ptr %192, align 8
  %194 = zext i8 %193 to i32
  %195 = icmp eq i32 %194, 11
  br i1 %195, label %196, label %205

196:                                              ; preds = %184
  %197 = load ptr, ptr %26, align 8
  %198 = load ptr, ptr %25, align 8
  %199 = getelementptr inbounds %struct._zend_class_constant, ptr %198, i32 0, i32 3
  %200 = load ptr, ptr %199, align 8
  %201 = call i32 @zval_update_constant_ex(ptr noundef %197, ptr noundef %200)
  %202 = icmp eq i32 %201, -1
  br i1 %202, label %203, label %204

203:                                              ; preds = %196
  store i32 -1, ptr %17, align 4
  br label %210

204:                                              ; preds = %196
  br label %205

205:                                              ; preds = %204, %184
  %206 = load ptr, ptr %26, align 8
  %207 = getelementptr inbounds %struct._zval_struct, ptr %206, i32 0, i32 0
  %208 = load ptr, ptr %207, align 8
  %209 = load ptr, ptr %18, align 8
  store ptr %208, ptr %209, align 8
  store i32 0, ptr %17, align 4
  br label %210

210:                                              ; preds = %205, %203, %129, %102, %43
  %211 = load i32, ptr %17, align 4
  ret i32 %211
}