; Function Attrs: nounwind uwtable
define noundef i32 @zend_enum_get_case_by_value(ptr nocapture noundef writeonly %0, ptr noundef %1, i64 noundef %2, ptr noundef %3, i1 noundef zeroext %4) local_unnamed_addr #0 {
  %6 = load i8, ptr %1, align 8
  %7 = icmp eq i8 %6, 2
  br i1 %7, label %8, label %15

8:                                                ; preds = %5
  %9 = getelementptr inbounds i8, ptr %1, i64 28
  %10 = load i32, ptr %9, align 4
  %11 = and i32 %10, 4096
  %.not = icmp eq i32 %11, 0
  br i1 %.not, label %12, label %15

12:                                               ; preds = %8
  %13 = tail call i32 @zend_update_class_constants(ptr noundef nonnull %1) #12
  %14 = icmp eq i32 %13, -1
  br i1 %14, label %93, label %15

15:                                               ; preds = %12, %8, %5
  %16 = getelementptr inbounds i8, ptr %1, i64 232
  %17 = load ptr, ptr %16, align 8
  %.not63 = icmp eq ptr %17, null
  br i1 %.not63, label %27, label %18

18:                                               ; preds = %15
  %19 = load i8, ptr %1, align 8
  %20 = icmp eq i8 %19, 2
  br i1 %20, label %21, label %27

21:                                               ; preds = %18
  %22 = load ptr, ptr getelementptr inbounds (%struct._zend_compiler_globals, ptr @compiler_globals, i64 0, i32 37), align 8
  %23 = ptrtoint ptr %17 to i64
  %24 = getelementptr inbounds i8, ptr %22, i64 %23
  %25 = load ptr, ptr %24, align 8
  %26 = getelementptr inbounds i8, ptr %25, i64 24
  br label %29

27:                                               ; preds = %18, %15
  %28 = getelementptr inbounds i8, ptr %1, i64 480
  br label %29

29:                                               ; preds = %27, %21
  %.052.in = phi ptr [ %26, %21 ], [ %28, %27 ]
  %.052 = load ptr, ptr %.052.in, align 8
  %.not64 = icmp eq ptr %.052, null
  br i1 %.not64, label %42, label %30

30:                                               ; preds = %29
  %31 = getelementptr inbounds i8, ptr %1, i64 472
  %32 = load i32, ptr %31, align 8
  %33 = icmp eq i32 %32, 4
  br i1 %33, label %34, label %36

34:                                               ; preds = %30
  %35 = tail call ptr @zend_hash_index_find(ptr noundef nonnull %.052, i64 noundef %2) #12
  br label %40

36:                                               ; preds = %30
  %37 = icmp eq i32 %32, 6
  tail call void @llvm.assume(i1 %37)
  %38 = icmp ne ptr %3, null
  tail call void @llvm.assume(i1 %38)
  %39 = tail call ptr @zend_hash_find(ptr noundef nonnull %.052, ptr noundef nonnull %3) #12
  br label %40

40:                                               ; preds = %36, %34
  %.053 = phi ptr [ %35, %34 ], [ %39, %36 ]
  %41 = icmp eq ptr %.053, null
  br i1 %41, label %42, label %58

42:                                               ; preds = %40, %29
  br i1 %4, label %43, label %44

43:                                               ; preds = %42
  store ptr null, ptr %0, align 8
  br label %93

44:                                               ; preds = %42
  %45 = getelementptr inbounds i8, ptr %1, i64 472
  %46 = load i32, ptr %45, align 8
  %47 = icmp eq i32 %46, 4
  br i1 %47, label %48, label %52

48:                                               ; preds = %44
  %49 = getelementptr inbounds i8, ptr %1, i64 8
  %50 = load ptr, ptr %49, align 8
  %51 = getelementptr inbounds i8, ptr %50, i64 24
  tail call void (ptr, ...) @zend_value_error(ptr noundef nonnull @.str.4, i64 noundef %2, ptr noundef nonnull %51) #12
  br label %93

52:                                               ; preds = %44
  %53 = icmp eq i32 %46, 6
  tail call void @llvm.assume(i1 %53)
  %54 = getelementptr inbounds i8, ptr %3, i64 24
  %55 = getelementptr inbounds i8, ptr %1, i64 8
  %56 = load ptr, ptr %55, align 8
  %57 = getelementptr inbounds i8, ptr %56, i64 24
  tail call void (ptr, ...) @zend_value_error(ptr noundef nonnull @.str.5, ptr noundef nonnull %54, ptr noundef nonnull %57) #12
  br label %93

58:                                               ; preds = %40
  %59 = getelementptr inbounds i8, ptr %1, i64 28
  %60 = load i32, ptr %59, align 4
  %61 = and i32 %60, 16777216
  %.not65 = icmp eq i32 %61, 0
  br i1 %.not65, label %74, label %62

62:                                               ; preds = %58
  %63 = load ptr, ptr %16, align 8
  %.not66 = icmp eq ptr %63, null
  br i1 %.not66, label %74, label %64

64:                                               ; preds = %62
  %65 = load ptr, ptr getelementptr inbounds (%struct._zend_compiler_globals, ptr @compiler_globals, i64 0, i32 37), align 8
  %66 = ptrtoint ptr %63 to i64
  %67 = getelementptr inbounds i8, ptr %65, i64 %66
  %68 = load ptr, ptr %67, align 8
  %.not67 = icmp eq ptr %68, null
  br i1 %.not67, label %72, label %69

69:                                               ; preds = %64
  %70 = getelementptr inbounds i8, ptr %68, i64 8
  %71 = load ptr, ptr %70, align 8
  %.not68 = icmp eq ptr %71, null
  br i1 %.not68, label %72, label %76

72:                                               ; preds = %69, %64
  %73 = tail call ptr @zend_separate_class_constants_table(ptr noundef nonnull %1) #12
  br label %76

74:                                               ; preds = %62, %58
  %75 = getelementptr inbounds i8, ptr %1, i64 176
  br label %76

76:                                               ; preds = %69, %74, %72
  %.054 = phi ptr [ %73, %72 ], [ %75, %74 ], [ %71, %69 ]
  %77 = load ptr, ptr %.053, align 8
  %78 = tail call ptr @zend_hash_find(ptr noundef %.054, ptr noundef %77) #12
  %.not69 = icmp eq ptr %78, null
  br i1 %.not69, label %81, label %79

79:                                               ; preds = %76
  %80 = load ptr, ptr %78, align 8, !nonnull !4, !noundef !4
  br label %81

81:                                               ; preds = %76, %79
  %.0 = phi ptr [ %80, %79 ], [ null, %76 ]
  %82 = icmp ne ptr %.0, null
  tail call void @llvm.assume(i1 %82)
  %83 = getelementptr inbounds i8, ptr %.0, i64 8
  %84 = load i8, ptr %83, align 8
  %85 = icmp eq i8 %84, 11
  br i1 %85, label %86, label %91

86:                                               ; preds = %81
  %87 = getelementptr inbounds i8, ptr %.0, i64 32
  %88 = load ptr, ptr %87, align 8
  %89 = tail call i32 @zval_update_constant_ex(ptr noundef nonnull %.0, ptr noundef %88) #12
  %90 = icmp eq i32 %89, -1
  br i1 %90, label %93, label %91

91:                                               ; preds = %86, %81
  %92 = load ptr, ptr %.0, align 8
  store ptr %92, ptr %0, align 8
  br label %93

93:                                               ; preds = %86, %48, %52, %12, %91, %43
  %.055 = phi i32 [ 0, %43 ], [ 0, %91 ], [ -1, %12 ], [ -1, %52 ], [ -1, %48 ], [ -1, %86 ]
  ret i32 %.055
}